(dp0
S'cI'
p1
I20031
sS'pbeta0'
p2
I20118
sS'pbeta1'
p3
I20132
sS'pbeta2'
p4
I20146
sS'pbeta3'
p5
I20160
sS'lacI'
p6
I20001
sS'GFP'
p7
I20046
sS'tetR'
p8
I20016
sS'palpha2'
p9
I20104
sS'palpha1'
p10
I20090
sS'palpha0'
p11
I20076
sS'gen'
p12
I20061
s.